; Function Attrs: null_pointer_is_valid sspstrong uwtable
define internal i32 @ieee80211_tag_power_constraint(ptr noundef %0, ptr noundef %1, ptr noundef %2, ptr noundef readonly captures(none) %3) #2 {
  %5 = tail call i32 @tvb_reported_length(ptr noundef %0)
  %.not = icmp eq i32 %5, 1
  br i1 %.not, label %10, label %6

6:                                                ; preds = %4
  %7 = getelementptr inbounds nuw i8, ptr %3, i64 32
  %8 = load ptr, ptr %7, align 8
  %9 = tail call ptr (ptr, ptr, ptr, ptr, ...) @expert_add_info_format(ptr noundef %1, ptr noundef %8, ptr noundef nonnull @ei_ieee80211_tag_length, ptr noundef nonnull @.str.9970, i32 noundef %5)
  br label %18

10:                                               ; preds = %4
  %11 = load i32, ptr @hf_ieee80211_tag_power_constraint_local, align 4
  %12 = tail call ptr @proto_tree_add_item(ptr noundef %2, i32 noundef %11, ptr noundef %0, i32 noundef 0, i32 noundef 1, i32 noundef -2147483648)
  %13 = getelementptr inbounds nuw i8, ptr %3, i64 24
  %14 = load ptr, ptr %13, align 8
  %15 = tail call zeroext i8 @tvb_get_uint8(ptr noundef %0, i32 noundef 0)
  %16 = zext i8 %15 to i32
  tail call void (ptr, ptr, ...) @proto_item_append_text(ptr noundef %14, ptr noundef nonnull @.str.9971, i32 noundef %16)
  %17 = tail call i32 @tvb_captured_length(ptr noundef %0)
  br label %18

18:                                               ; preds = %10, %6
  %.0 = phi i32 [ 1, %6 ], [ %17, %10 ]
  ret i32 %.0
}